; Function Attrs: nofree norecurse nosync nounwind memory(readwrite, inaccessiblemem: none) uwtable
define void @Csw_TableCutInsert(ptr noundef readonly captures(none) %0, ptr noundef %1) local_unnamed_addr #2 {
  %3 = getelementptr inbounds nuw i8, ptr %1, i64 23
  %4 = load i8, ptr %3, align 1
  %5 = icmp sgt i8 %4, 0
  br i1 %5, label %.lr.ph.i, label %Csw_CutHash.exit

.lr.ph.i:                                         ; preds = %2
  %wide.trip.count.i = zext nneg i8 %4 to i64
  %6 = getelementptr inbounds nuw i8, ptr %1, i64 24
  br label %7

7:                                                ; preds = %7, %.lr.ph.i
  %indvars.iv.i = phi i64 [ 0, %.lr.ph.i ], [ %indvars.iv.next.i, %7 ]
  %.078.i = phi i32 [ 0, %.lr.ph.i ], [ %13, %7 ]
  %8 = getelementptr inbounds nuw [0 x i32], ptr %6, i64 0, i64 %indvars.iv.i
  %9 = load i32, ptr %8, align 4
  %10 = getelementptr inbounds nuw [128 x i32], ptr @Csw_CutHash.s_FPrimes, i64 0, i64 %indvars.iv.i
  %11 = load i32, ptr %10, align 4
  %12 = mul nsw i32 %11, %9
  %13 = xor i32 %12, %.078.i
  %indvars.iv.next.i = add nuw nsw i64 %indvars.iv.i, 1
  %exitcond.not.i = icmp eq i64 %indvars.iv.next.i, %wide.trip.count.i
  br i1 %exitcond.not.i, label %Csw_CutHash.exit, label %7, !llvm.loop !4

Csw_CutHash.exit:                                 ; preds = %7, %2
  %.07.lcssa.i = phi i32 [ 0, %2 ], [ %13, %7 ]
  %14 = getelementptr inbounds nuw i8, ptr %0, i64 48
  %15 = load i32, ptr %14, align 8
  %16 = urem i32 %.07.lcssa.i, %15
  %17 = getelementptr inbounds nuw i8, ptr %0, i64 40
  %18 = load ptr, ptr %17, align 8
  %19 = sext i32 %16 to i64
  %20 = getelementptr inbounds ptr, ptr %18, i64 %19
  %21 = load ptr, ptr %20, align 8
  store ptr %21, ptr %1, align 8
  %22 = load ptr, ptr %17, align 8
  %23 = getelementptr inbounds ptr, ptr %22, i64 %19
  store ptr %1, ptr %23, align 8
  ret void
}